target datalayout = "e-m:e-p270:32:32-p271:32:32-p272:64:64-i64:64-i128:128-f80:128-n8:16:32:64-S128"
target triple = "x86_64-pc-linux-gnu"

@l_Std_DHashMap_Internal_AssocList_forInStep_go___at_Lean_Elab_Tactic_BVDecide_Frontend_Normalize_enumsPass___elambda__1___spec__1___closed__2 = internal global ptr null, align 8
@l_Std_DHashMap_Internal_AssocList_forInStep_go___at_Lean_Elab_Tactic_BVDecide_Frontend_Normalize_enumsPass___elambda__1___spec__1___closed__3 = internal global ptr null, align 8
@l_Std_DHashMap_Internal_AssocList_forInStep_go___at_Lean_Elab_Tactic_BVDecide_Frontend_Normalize_enumsPass___elambda__1___spec__1___closed__4 = internal global ptr null, align 8
@l_Std_DHashMap_Internal_AssocList_forInStep_go___at_Lean_Elab_Tactic_BVDecide_Frontend_Normalize_enumsPass___elambda__1___spec__1___closed__5 = internal global ptr null, align 8
@l_Std_DHashMap_Internal_AssocList_forInStep_go___at_Lean_Elab_Tactic_BVDecide_Frontend_Normalize_enumsPass___elambda__1___spec__1___closed__6 = internal global ptr null, align 8
@l_Std_DHashMap_Internal_AssocList_forInStep_go___at_Lean_Elab_Tactic_BVDecide_Frontend_Normalize_enumsPass___elambda__1___spec__1___closed__7 = internal global ptr null, align 8
@l_Std_DHashMap_Internal_AssocList_forInStep_go___at_Lean_Elab_Tactic_BVDecide_Frontend_Normalize_enumsPass___elambda__1___spec__1___closed__18 = internal global ptr null, align 8

; Function Attrs: nounwind uwtable
define internal ptr @_init_l_Std_DHashMap_Internal_AssocList_forInStep_go___at_Lean_Elab_Tactic_BVDecide_Frontend_Normalize_enumsPass___elambda__1___spec__1___closed__19() #2 {
  %1 = alloca ptr, align 8
  %2 = alloca ptr, align 8
  %3 = alloca ptr, align 8
  %4 = alloca ptr, align 8
  %5 = alloca ptr, align 8
  %6 = alloca ptr, align 8
  %7 = alloca ptr, align 8
  %8 = alloca ptr, align 8
  br label %9

9:                                                ; preds = %0
  call void @llvm.lifetime.start.p0(i64 8, ptr %1) #8
  call void @llvm.lifetime.start.p0(i64 8, ptr %2) #8
  call void @llvm.lifetime.start.p0(i64 8, ptr %3) #8
  call void @llvm.lifetime.start.p0(i64 8, ptr %4) #8
  call void @llvm.lifetime.start.p0(i64 8, ptr %5) #8
  call void @llvm.lifetime.start.p0(i64 8, ptr %6) #8
  call void @llvm.lifetime.start.p0(i64 8, ptr %7) #8
  call void @llvm.lifetime.start.p0(i64 8, ptr %8) #8
  %10 = load ptr, ptr @l_Std_DHashMap_Internal_AssocList_forInStep_go___at_Lean_Elab_Tactic_BVDecide_Frontend_Normalize_enumsPass___elambda__1___spec__1___closed__2, align 8, !tbaa !4
  store ptr %10, ptr %1, align 8, !tbaa !4
  %11 = load ptr, ptr @l_Std_DHashMap_Internal_AssocList_forInStep_go___at_Lean_Elab_Tactic_BVDecide_Frontend_Normalize_enumsPass___elambda__1___spec__1___closed__3, align 8, !tbaa !4
  store ptr %11, ptr %2, align 8, !tbaa !4
  %12 = load ptr, ptr @l_Std_DHashMap_Internal_AssocList_forInStep_go___at_Lean_Elab_Tactic_BVDecide_Frontend_Normalize_enumsPass___elambda__1___spec__1___closed__4, align 8, !tbaa !4
  store ptr %12, ptr %3, align 8, !tbaa !4
  %13 = load ptr, ptr @l_Std_DHashMap_Internal_AssocList_forInStep_go___at_Lean_Elab_Tactic_BVDecide_Frontend_Normalize_enumsPass___elambda__1___spec__1___closed__5, align 8, !tbaa !4
  store ptr %13, ptr %4, align 8, !tbaa !4
  %14 = load ptr, ptr @l_Std_DHashMap_Internal_AssocList_forInStep_go___at_Lean_Elab_Tactic_BVDecide_Frontend_Normalize_enumsPass___elambda__1___spec__1___closed__6, align 8, !tbaa !4
  store ptr %14, ptr %5, align 8, !tbaa !4
  %15 = load ptr, ptr @l_Std_DHashMap_Internal_AssocList_forInStep_go___at_Lean_Elab_Tactic_BVDecide_Frontend_Normalize_enumsPass___elambda__1___spec__1___closed__7, align 8, !tbaa !4
  store ptr %15, ptr %6, align 8, !tbaa !4
  %16 = load ptr, ptr @l_Std_DHashMap_Internal_AssocList_forInStep_go___at_Lean_Elab_Tactic_BVDecide_Frontend_Normalize_enumsPass___elambda__1___spec__1___closed__18, align 8, !tbaa !4
  store ptr %16, ptr %7, align 8, !tbaa !4
  %17 = load ptr, ptr %1, align 8, !tbaa !4
  %18 = load ptr, ptr %2, align 8, !tbaa !4
  %19 = load ptr, ptr %3, align 8, !tbaa !4
  %20 = load ptr, ptr %4, align 8, !tbaa !4
  %21 = load ptr, ptr %5, align 8, !tbaa !4
  %22 = load ptr, ptr %6, align 8, !tbaa !4
  %23 = load ptr, ptr %7, align 8, !tbaa !4
  %24 = call ptr @l_Lean_Name_mkStr7(ptr noundef %17, ptr noundef %18, ptr noundef %19, ptr noundef %20, ptr noundef %21, ptr noundef %22, ptr noundef %23)
  store ptr %24, ptr %8, align 8, !tbaa !4
  %25 = load ptr, ptr %8, align 8, !tbaa !4
  call void @llvm.lifetime.end.p0(i64 8, ptr %8) #8
  call void @llvm.lifetime.end.p0(i64 8, ptr %7) #8
  call void @llvm.lifetime.end.p0(i64 8, ptr %6) #8
  call void @llvm.lifetime.end.p0(i64 8, ptr %5) #8
  call void @llvm.lifetime.end.p0(i64 8, ptr %4) #8
  call void @llvm.lifetime.end.p0(i64 8, ptr %3) #8
  call void @llvm.lifetime.end.p0(i64 8, ptr %2) #8
  call void @llvm.lifetime.end.p0(i64 8, ptr %1) #8
  ret ptr %25
}