; Function Attrs: nounwind uwtable
define internal fastcc ptr @_init_l_Std_DHashMap_Internal_AssocList_forInStep_go___at_Lean_Elab_Tactic_BVDecide_Frontend_Normalize_enumsPass___elambda__1___spec__1___closed__19() unnamed_addr #1 {
  %1 = load ptr, ptr @l_Std_DHashMap_Internal_AssocList_forInStep_go___at_Lean_Elab_Tactic_BVDecide_Frontend_Normalize_enumsPass___elambda__1___spec__1___closed__2, align 8, !tbaa !11
  %2 = load ptr, ptr @l_Std_DHashMap_Internal_AssocList_forInStep_go___at_Lean_Elab_Tactic_BVDecide_Frontend_Normalize_enumsPass___elambda__1___spec__1___closed__3, align 8, !tbaa !11
  %3 = load ptr, ptr @l_Std_DHashMap_Internal_AssocList_forInStep_go___at_Lean_Elab_Tactic_BVDecide_Frontend_Normalize_enumsPass___elambda__1___spec__1___closed__4, align 8, !tbaa !11
  %4 = load ptr, ptr @l_Std_DHashMap_Internal_AssocList_forInStep_go___at_Lean_Elab_Tactic_BVDecide_Frontend_Normalize_enumsPass___elambda__1___spec__1___closed__5, align 8, !tbaa !11
  %5 = load ptr, ptr @l_Std_DHashMap_Internal_AssocList_forInStep_go___at_Lean_Elab_Tactic_BVDecide_Frontend_Normalize_enumsPass___elambda__1___spec__1___closed__6, align 8, !tbaa !11
  %6 = load ptr, ptr @l_Std_DHashMap_Internal_AssocList_forInStep_go___at_Lean_Elab_Tactic_BVDecide_Frontend_Normalize_enumsPass___elambda__1___spec__1___closed__7, align 8, !tbaa !11
  %7 = load ptr, ptr @l_Std_DHashMap_Internal_AssocList_forInStep_go___at_Lean_Elab_Tactic_BVDecide_Frontend_Normalize_enumsPass___elambda__1___spec__1___closed__18, align 8, !tbaa !11
  %8 = tail call ptr @l_Lean_Name_mkStr7(ptr noundef %1, ptr noundef %2, ptr noundef %3, ptr noundef %4, ptr noundef %5, ptr noundef %6, ptr noundef %7) #7
  ret ptr %8
}